target datalayout = "e-m:e-p270:32:32-p271:32:32-p272:64:64-i64:64-i128:128-f80:128-n8:16:32:64-S128"
target triple = "x86_64-pc-linux-gnu"

%struct.sigperf_elem = type { ptr, i64, i64, i64 }

; Function Attrs: nounwind uwtable
define internal i32 @sigelem_comp(ptr noundef %0, ptr noundef %1) #0 {
  %3 = alloca ptr, align 8
  %4 = alloca ptr, align 8
  %5 = alloca ptr, align 8
  %6 = alloca ptr, align 8
  store ptr %0, ptr %3, align 8
  store ptr %1, ptr %4, align 8
  %7 = load ptr, ptr %3, align 8
  store ptr %7, ptr %5, align 8
  %8 = load ptr, ptr %4, align 8
  store ptr %8, ptr %6, align 8
  %9 = load ptr, ptr %6, align 8
  %10 = getelementptr inbounds %struct.sigperf_elem, ptr %9, i32 0, i32 1
  %11 = load i64, ptr %10, align 8
  %12 = load ptr, ptr %6, align 8
  %13 = getelementptr inbounds %struct.sigperf_elem, ptr %12, i32 0, i32 2
  %14 = load i64, ptr %13, align 8
  %15 = udiv i64 %11, %14
  %16 = load ptr, ptr %5, align 8
  %17 = getelementptr inbounds %struct.sigperf_elem, ptr %16, i32 0, i32 1
  %18 = load i64, ptr %17, align 8
  %19 = load ptr, ptr %5, align 8
  %20 = getelementptr inbounds %struct.sigperf_elem, ptr %19, i32 0, i32 2
  %21 = load i64, ptr %20, align 8
  %22 = udiv i64 %18, %21
  %23 = sub i64 %15, %22
  %24 = trunc i64 %23 to i32
  ret i32 %24
}