; Function Attrs: mustprogress nofree norecurse nosync nounwind willreturn memory(argmem: read) uwtable
define internal i32 @sigelem_comp(ptr nocapture noundef readonly %0, ptr nocapture noundef readonly %1) #8 {
  %3 = getelementptr inbounds i8, ptr %1, i64 8
  %4 = load i64, ptr %3, align 8
  %5 = getelementptr inbounds i8, ptr %1, i64 16
  %6 = load i64, ptr %5, align 8
  %7 = udiv i64 %4, %6
  %8 = getelementptr inbounds i8, ptr %0, i64 8
  %9 = load i64, ptr %8, align 8
  %10 = getelementptr inbounds i8, ptr %0, i64 16
  %11 = load i64, ptr %10, align 8
  %12 = udiv i64 %9, %11
  %13 = sub i64 %7, %12
  %14 = trunc i64 %13 to i32
  ret i32 %14
}